target datalayout = "e-m:e-p270:32:32-p271:32:32-p272:64:64-i64:64-i128:128-f80:128-n8:16:32:64-S128"
target triple = "x86_64-pc-linux-gnu"

%class.symbol = type { ptr }
%class.parameter = type { %"class.std::variant" }
%"class.std::variant" = type { %"struct.std::__detail::__variant::_Variant_base.base", [7 x i8] }
%"struct.std::__detail::__variant::_Variant_base.base" = type { %"struct.std::__detail::__variant::_Move_assign_base.base" }
%"struct.std::__detail::__variant::_Move_assign_base.base" = type { %"struct.std::__detail::__variant::_Copy_assign_base.base" }
%"struct.std::__detail::__variant::_Copy_assign_base.base" = type { %"struct.std::__detail::__variant::_Move_ctor_base.base" }
%"struct.std::__detail::__variant::_Move_ctor_base.base" = type { %"struct.std::__detail::__variant::_Copy_ctor_base.base" }
%"struct.std::__detail::__variant::_Copy_ctor_base.base" = type { %"struct.std::__detail::__variant::_Variant_storage.base" }
%"struct.std::__detail::__variant::_Variant_storage.base" = type <{ %"union.std::__detail::__variant::_Variadic_union", i8 }>
%"union.std::__detail::__variant::_Variadic_union" = type { %"union.std::__detail::__variant::_Variadic_union.32" }
%"union.std::__detail::__variant::_Variadic_union.32" = type { %"struct.std::__detail::__variant::_Uninitialized.33" }
%"struct.std::__detail::__variant::_Uninitialized.33" = type { ptr }
%class.ast_manager = type { %class.reslimit, %class.small_object_allocator, %class.family_manager, %class.parray_manager, %class.dependency_manager, %class.parray_manager.15, %class.ptr_vector.18, i32, i8, %class.ast_table, %class.obj_map, %class.id_gen, %class.id_gen, ptr, ptr, ptr, ptr, ptr, i32, i8, [3 x i8], %class.u_map, ptr, i8, i8, ptr, %class.symbol, %class.obj_map.26, ptr }
%class.reslimit = type { %"struct.std::atomic", i8, i64, i64, %class.svector, %class.ptr_vector.4 }
%"struct.std::atomic" = type { %"struct.std::__atomic_base" }
%"struct.std::__atomic_base" = type { i32 }
%class.svector = type { %class.vector.3 }
%class.vector.3 = type { ptr }
%class.ptr_vector.4 = type { %class.vector.5 }
%class.vector.5 = type { ptr }
%class.small_object_allocator = type { [32 x ptr], [32 x ptr], i64 }
%class.family_manager = type { i32, %class.symbol_table, %class.svector.9 }
%class.symbol_table = type { %class.core_hashtable, %class.vector.6, %class.svector.7 }
%class.core_hashtable = type <{ ptr, i32, i32, i32, [4 x i8] }>
%class.vector.6 = type { ptr }
%class.svector.7 = type { %class.vector.8 }
%class.vector.8 = type { ptr }
%class.svector.9 = type { %class.vector.10 }
%class.vector.10 = type { ptr }
%class.parray_manager = type { ptr, ptr, %class.ptr_vector.11, %class.ptr_vector.11 }
%class.ptr_vector.11 = type { %class.vector.12 }
%class.vector.12 = type { ptr }
%class.dependency_manager = type { ptr, ptr, %class.ptr_vector.13 }
%class.ptr_vector.13 = type { %class.vector.14 }
%class.vector.14 = type { ptr }
%class.parray_manager.15 = type { ptr, ptr, %class.ptr_vector.16, %class.ptr_vector.16 }
%class.ptr_vector.16 = type { %class.vector.17 }
%class.vector.17 = type { ptr }
%class.ptr_vector.18 = type { %class.vector.19 }
%class.vector.19 = type { ptr }
%class.ast_table = type { %class.chashtable }
%class.chashtable = type { ptr, i32, i32, i32, i32, i32, i32, i32, ptr, ptr, ptr }
%class.obj_map = type { %class.core_hashtable.20 }
%class.core_hashtable.20 = type <{ ptr, i32, i32, i32, [4 x i8] }>
%class.id_gen = type { i32, %class.svector.22 }
%class.svector.22 = type { %class.vector.23 }
%class.vector.23 = type { ptr }
%class.u_map = type { %class.map }
%class.map = type { %class.table2map }
%class.table2map = type { %class.core_hashtable.24 }
%class.core_hashtable.24 = type <{ ptr, i32, i32, i32, [4 x i8] }>
%class.obj_map.26 = type { %class.core_hashtable.27 }
%class.core_hashtable.27 = type <{ ptr, i32, i32, i32, [4 x i8] }>
%class.bv_recognizers = type { i32 }
%class.bv_util = type { %class.bv_recognizers, ptr, ptr }
%"struct.std::__detail::__variant::_Variant_storage" = type <{ %"union.std::__detail::__variant::_Variadic_union", i8, [7 x i8] }>

@.str.14 = private unnamed_addr constant [6 x i8] c"arith\00", align 1

; Function Attrs: mustprogress nounwind uwtable
define linkonce_odr hidden void @_ZNSt8__detail9__variant14_UninitializedIP3astLb1EEC2IJRS3_EEESt16in_place_index_tILm0EEDpOT_(ptr noundef nonnull align 8 dereferenceable(8) %0, ptr noundef nonnull align 8 dereferenceable(8) %1) unnamed_addr #6 comdat align 2 {
  %3 = alloca ptr, align 8
  %4 = alloca ptr, align 8
  store ptr %0, ptr %3, align 8, !tbaa !293
  store ptr %1, ptr %4, align 8, !tbaa !316
  %5 = load ptr, ptr %3, align 8
  %6 = getelementptr inbounds nuw %"struct.std::__detail::__variant::_Uninitialized.33", ptr %5, i32 0, i32 0
  %7 = load ptr, ptr %4, align 8, !tbaa !316
  %8 = load ptr, ptr %7, align 8, !tbaa !56
  store ptr %8, ptr %6, align 8, !tbaa !318
  ret void
}

; Function Attrs: mustprogress uwtable
define linkonce_odr hidden void @_ZNSt8__detail9__variant15_Variadic_unionIJP3ast6symbolP7zstringP8rationaldjEEC2IJRS3_EEESt16in_place_index_tILm0EEDpOT_(ptr noundef nonnull align 8 dereferenceable(8) %0, ptr noundef nonnull align 8 dereferenceable(8) %1) unnamed_addr #4 comdat align 2 {
  %3 = alloca ptr, align 8
  %4 = alloca ptr, align 8
  store ptr %0, ptr %3, align 8, !tbaa !307
  store ptr %1, ptr %4, align 8, !tbaa !316
  %5 = load ptr, ptr %3, align 8
  %6 = load ptr, ptr %4, align 8, !tbaa !316
  call void @_ZNSt8__detail9__variant14_UninitializedIP3astLb1EEC2IJRS3_EEESt16in_place_index_tILm0EEDpOT_(ptr noundef nonnull align 8 dereferenceable(8) %5, ptr noundef nonnull align 8 dereferenceable(8) %6)
  ret void
}

; Function Attrs: mustprogress uwtable
define linkonce_odr hidden void @_ZNSt8__detail9__variant15_Variadic_unionIJiP3ast6symbolP7zstringP8rationaldjEEC2ILm1EJRS3_EEESt16in_place_index_tIXT_EEDpOT0_(ptr noundef nonnull align 8 dereferenceable(8) %0, ptr noundef nonnull align 8 dereferenceable(8) %1) unnamed_addr #4 comdat align 2 {
  %3 = alloca ptr, align 8
  %4 = alloca ptr, align 8
  store ptr %0, ptr %3, align 8, !tbaa !273
  store ptr %1, ptr %4, align 8, !tbaa !316
  %5 = load ptr, ptr %3, align 8
  %6 = load ptr, ptr %4, align 8, !tbaa !316
  call void @_ZNSt8__detail9__variant15_Variadic_unionIJP3ast6symbolP7zstringP8rationaldjEEC2IJRS3_EEESt16in_place_index_tILm0EEDpOT_(ptr noundef nonnull align 8 dereferenceable(8) %5, ptr noundef nonnull align 8 dereferenceable(8) %6)
  ret void
}

; Function Attrs: mustprogress uwtable
define linkonce_odr hidden void @_ZNSt8__detail9__variant16_Variant_storageILb1EJiP3ast6symbolP7zstringP8rationaldjEEC2ILm1EJRS3_EEESt16in_place_index_tIXT_EEDpOT0_(ptr noundef nonnull align 8 dereferenceable(9) %0, ptr noundef nonnull align 8 dereferenceable(8) %1) unnamed_addr #4 comdat align 2 {
  %3 = alloca ptr, align 8
  %4 = alloca ptr, align 8
  store ptr %0, ptr %3, align 8, !tbaa !269
  store ptr %1, ptr %4, align 8, !tbaa !316
  %5 = load ptr, ptr %3, align 8
  %6 = getelementptr inbounds nuw %"struct.std::__detail::__variant::_Variant_storage", ptr %5, i32 0, i32 0
  %7 = load ptr, ptr %4, align 8, !tbaa !316
  call void @_ZNSt8__detail9__variant15_Variadic_unionIJiP3ast6symbolP7zstringP8rationaldjEEC2ILm1EJRS3_EEESt16in_place_index_tIXT_EEDpOT0_(ptr noundef nonnull align 8 dereferenceable(8) %6, ptr noundef nonnull align 8 dereferenceable(8) %7)
  %8 = getelementptr inbounds nuw %"struct.std::__detail::__variant::_Variant_storage", ptr %5, i32 0, i32 1
  store i8 1, ptr %8, align 8, !tbaa !271
  ret void
}

; Function Attrs: inlinehint mustprogress uwtable
define linkonce_odr hidden void @_ZNSt8__detail9__variant15_Copy_ctor_baseILb1EJiP3ast6symbolP7zstringP8rationaldjEECI2NS0_16_Variant_storageILb1EJiS3_S4_S6_S8_djEEEILm1EJRS3_EEESt16in_place_index_tIXT_EEDpOT0_(ptr noundef nonnull align 8 dereferenceable(9) %0, ptr noundef nonnull align 8 dereferenceable(8) %1) unnamed_addr #8 comdat align 2 {
  %3 = alloca ptr, align 8
  %4 = alloca ptr, align 8
  store ptr %0, ptr %3, align 8, !tbaa !267
  store ptr %1, ptr %4, align 8, !tbaa !316
  %5 = load ptr, ptr %3, align 8
  %6 = load ptr, ptr %4, align 8
  call void @_ZNSt8__detail9__variant16_Variant_storageILb1EJiP3ast6symbolP7zstringP8rationaldjEEC2ILm1EJRS3_EEESt16in_place_index_tIXT_EEDpOT0_(ptr noundef nonnull align 8 dereferenceable(9) %5, ptr noundef nonnull align 8 dereferenceable(8) %6)
  ret void
}

; Function Attrs: inlinehint mustprogress uwtable
define linkonce_odr hidden void @_ZNSt8__detail9__variant15_Move_ctor_baseILb1EJiP3ast6symbolP7zstringP8rationaldjEECI2NS0_16_Variant_storageILb1EJiS3_S4_S6_S8_djEEEILm1EJRS3_EEESt16in_place_index_tIXT_EEDpOT0_(ptr noundef nonnull align 8 dereferenceable(9) %0, ptr noundef nonnull align 8 dereferenceable(8) %1) unnamed_addr #8 comdat align 2 {
  %3 = alloca ptr, align 8
  %4 = alloca ptr, align 8
  store ptr %0, ptr %3, align 8, !tbaa !265
  store ptr %1, ptr %4, align 8, !tbaa !316
  %5 = load ptr, ptr %3, align 8
  %6 = load ptr, ptr %4, align 8
  call void @_ZNSt8__detail9__variant15_Copy_ctor_baseILb1EJiP3ast6symbolP7zstringP8rationaldjEECI2NS0_16_Variant_storageILb1EJiS3_S4_S6_S8_djEEEILm1EJRS3_EEESt16in_place_index_tIXT_EEDpOT0_(ptr noundef nonnull align 8 dereferenceable(9) %5, ptr noundef nonnull align 8 dereferenceable(8) %6)
  ret void
}

; Function Attrs: inlinehint mustprogress uwtable
define linkonce_odr hidden void @_ZNSt8__detail9__variant17_Copy_assign_baseILb1EJiP3ast6symbolP7zstringP8rationaldjEECI2NS0_16_Variant_storageILb1EJiS3_S4_S6_S8_djEEEILm1EJRS3_EEESt16in_place_index_tIXT_EEDpOT0_(ptr noundef nonnull align 8 dereferenceable(9) %0, ptr noundef nonnull align 8 dereferenceable(8) %1) unnamed_addr #8 comdat align 2 {
  %3 = alloca ptr, align 8
  %4 = alloca ptr, align 8
  store ptr %0, ptr %3, align 8, !tbaa !263
  store ptr %1, ptr %4, align 8, !tbaa !316
  %5 = load ptr, ptr %3, align 8
  %6 = load ptr, ptr %4, align 8
  call void @_ZNSt8__detail9__variant15_Move_ctor_baseILb1EJiP3ast6symbolP7zstringP8rationaldjEECI2NS0_16_Variant_storageILb1EJiS3_S4_S6_S8_djEEEILm1EJRS3_EEESt16in_place_index_tIXT_EEDpOT0_(ptr noundef nonnull align 8 dereferenceable(9) %5, ptr noundef nonnull align 8 dereferenceable(8) %6)
  ret void
}

; Function Attrs: inlinehint mustprogress uwtable
define linkonce_odr hidden void @_ZNSt8__detail9__variant17_Move_assign_baseILb1EJiP3ast6symbolP7zstringP8rationaldjEECI2NS0_16_Variant_storageILb1EJiS3_S4_S6_S8_djEEEILm1EJRS3_EEESt16in_place_index_tIXT_EEDpOT0_(ptr noundef nonnull align 8 dereferenceable(9) %0, ptr noundef nonnull align 8 dereferenceable(8) %1) unnamed_addr #8 comdat align 2 {
  %3 = alloca ptr, align 8
  %4 = alloca ptr, align 8
  store ptr %0, ptr %3, align 8, !tbaa !261
  store ptr %1, ptr %4, align 8, !tbaa !316
  %5 = load ptr, ptr %3, align 8
  %6 = load ptr, ptr %4, align 8
  call void @_ZNSt8__detail9__variant17_Copy_assign_baseILb1EJiP3ast6symbolP7zstringP8rationaldjEECI2NS0_16_Variant_storageILb1EJiS3_S4_S6_S8_djEEEILm1EJRS3_EEESt16in_place_index_tIXT_EEDpOT0_(ptr noundef nonnull align 8 dereferenceable(9) %5, ptr noundef nonnull align 8 dereferenceable(8) %6)
  ret void
}

; Function Attrs: mustprogress nounwind uwtable
define linkonce_odr hidden void @_ZNSt27_Enable_default_constructorILb1ESt7variantIJiP3ast6symbolP7zstringP8rationaldjEEEC2ESt31_Enable_default_constructor_tag(ptr noundef nonnull align 1 dereferenceable(1) %0) unnamed_addr #6 comdat align 2 {
  %2 = alloca ptr, align 8
  store ptr %0, ptr %2, align 8, !tbaa !259
  ret void
}

; Function Attrs: mustprogress uwtable
define linkonce_odr hidden void @_ZNSt8__detail9__variant13_Variant_baseIJiP3ast6symbolP7zstringP8rationaldjEEC2ILm1EJRS3_EEESt16in_place_index_tIXT_EEDpOT0_(ptr noundef nonnull align 8 dereferenceable(9) %0, ptr noundef nonnull align 8 dereferenceable(8) %1) unnamed_addr #4 comdat align 2 {
  %3 = alloca ptr, align 8
  %4 = alloca ptr, align 8
  store ptr %0, ptr %3, align 8, !tbaa !257
  store ptr %1, ptr %4, align 8, !tbaa !316
  %5 = load ptr, ptr %3, align 8
  %6 = load ptr, ptr %4, align 8, !tbaa !316
  call void @_ZNSt8__detail9__variant17_Move_assign_baseILb1EJiP3ast6symbolP7zstringP8rationaldjEECI2NS0_16_Variant_storageILb1EJiS3_S4_S6_S8_djEEEILm1EJRS3_EEESt16in_place_index_tIXT_EEDpOT0_(ptr noundef nonnull align 8 dereferenceable(9) %5, ptr noundef nonnull align 8 dereferenceable(8) %6)
  ret void
}

; Function Attrs: noinline noreturn nounwind uwtable
define linkonce_odr hidden void @__clang_call_terminate(ptr noundef %0) #11 comdat {
  %2 = call ptr @__cxa_begin_catch(ptr %0) #3
  call void @_ZSt9terminatev() #21
  unreachable
}

; Function Attrs: mustprogress uwtable
define linkonce_odr hidden void @_ZNSt7variantIJiP3ast6symbolP7zstringP8rationaldjEEC2ILm1EJRS1_ES1_vEESt16in_place_index_tIXT_EEDpOT0_(ptr noundef nonnull align 8 dereferenceable(9) %0, ptr noundef nonnull align 8 dereferenceable(8) %1) unnamed_addr #4 comdat align 2 {
  %3 = alloca ptr, align 8
  %4 = alloca ptr, align 8
  store ptr %0, ptr %3, align 8, !tbaa !255
  store ptr %1, ptr %4, align 8, !tbaa !316
  %5 = load ptr, ptr %3, align 8
  %6 = load ptr, ptr %4, align 8, !tbaa !316
  call void @_ZNSt8__detail9__variant13_Variant_baseIJiP3ast6symbolP7zstringP8rationaldjEEC2ILm1EJRS3_EEESt16in_place_index_tIXT_EEDpOT0_(ptr noundef nonnull align 8 dereferenceable(9) %5, ptr noundef nonnull align 8 dereferenceable(8) %6)
  call void @_ZNSt27_Enable_default_constructorILb1ESt7variantIJiP3ast6symbolP7zstringP8rationaldjEEEC2ESt31_Enable_default_constructor_tag(ptr noundef nonnull align 1 dereferenceable(1) %5)
  ret void
}

; Function Attrs: mustprogress nounwind uwtable
define linkonce_odr hidden void @_ZNSt7variantIJiP3ast6symbolP7zstringP8rationaldjEEC2IRS1_vvS1_vEEOT_(ptr noundef nonnull align 8 dereferenceable(9) %0, ptr noundef nonnull align 8 dereferenceable(8) %1) unnamed_addr #6 comdat align 2 personality ptr @__gxx_personality_v0 {
  %3 = alloca ptr, align 8
  %4 = alloca ptr, align 8
  store ptr %0, ptr %3, align 8, !tbaa !255
  store ptr %1, ptr %4, align 8, !tbaa !316
  %5 = load ptr, ptr %3, align 8
  %6 = load ptr, ptr %4, align 8, !tbaa !316
  invoke void @_ZNSt7variantIJiP3ast6symbolP7zstringP8rationaldjEEC2ILm1EJRS1_ES1_vEESt16in_place_index_tIXT_EEDpOT0_(ptr noundef nonnull align 8 dereferenceable(9) %5, ptr noundef nonnull align 8 dereferenceable(8) %6)
          to label %7 unwind label %8

7:                                                ; preds = %2
  ret void

8:                                                ; preds = %2
  %9 = landingpad { ptr, i32 }
          catch ptr null
  %10 = extractvalue { ptr, i32 } %9, 0
  call void @__clang_call_terminate(ptr %10) #21
  unreachable
}

; Function Attrs: mustprogress uwtable
define linkonce_odr hidden noundef i32 @_ZN11ast_manager12mk_family_idERK6symbol(ptr noundef nonnull align 8 dereferenceable(976) %0, ptr noundef nonnull align 8 dereferenceable(8) %1) #4 comdat align 2 {
  %3 = alloca ptr, align 8
  %4 = alloca ptr, align 8
  store ptr %0, ptr %3, align 8, !tbaa !42
  store ptr %1, ptr %4, align 8, !tbaa !52
  %5 = load ptr, ptr %3, align 8
  %6 = getelementptr inbounds nuw %class.ast_manager, ptr %5, i32 0, i32 2
  %7 = load ptr, ptr %4, align 8, !tbaa !52
  %8 = call noundef i32 @_ZN14family_manager12mk_family_idERK6symbol(ptr noundef nonnull align 8 dereferenceable(56) %6, ptr noundef nonnull align 8 dereferenceable(8) %7)
  ret i32 %8
}

; Function Attrs: mustprogress nounwind uwtable
define linkonce_odr hidden noundef i32 @_ZNK14bv_recognizers7get_fidEv(ptr noundef nonnull align 4 dereferenceable(4) %0) #6 comdat align 2 {
  %2 = alloca ptr, align 8
  store ptr %0, ptr %2, align 8, !tbaa !203
  %3 = load ptr, ptr %2, align 8
  %4 = getelementptr inbounds nuw %class.bv_recognizers, ptr %3, i32 0, i32 0
  %5 = load i32, ptr %4, align 4, !tbaa !205
  ret i32 %5
}

; Function Attrs: mustprogress nounwind uwtable
define linkonce_odr hidden void @_ZN9parameterC2EP3ast(ptr noundef nonnull align 8 dereferenceable(16) %0, ptr noundef %1) unnamed_addr #6 comdat align 2 {
  %3 = alloca ptr, align 8
  %4 = alloca ptr, align 8
  store ptr %0, ptr %3, align 8, !tbaa !142
  store ptr %1, ptr %4, align 8, !tbaa !56
  %5 = load ptr, ptr %3, align 8
  %6 = getelementptr inbounds nuw %class.parameter, ptr %5, i32 0, i32 0
  call void @_ZNSt7variantIJiP3ast6symbolP7zstringP8rationaldjEEC2IRS1_vvS1_vEEOT_(ptr noundef nonnull align 8 dereferenceable(9) %6, ptr noundef nonnull align 8 dereferenceable(8) %4) #3
  ret void
}

; Function Attrs: mustprogress uwtable
define linkonce_odr hidden noundef i32 @_ZN11ast_manager12mk_family_idEPKc(ptr noundef nonnull align 8 dereferenceable(976) %0, ptr noundef %1) #4 comdat align 2 {
  %3 = alloca ptr, align 8
  %4 = alloca ptr, align 8
  %5 = alloca %class.symbol, align 8
  store ptr %0, ptr %3, align 8, !tbaa !42
  store ptr %1, ptr %4, align 8, !tbaa !120
  %6 = load ptr, ptr %3, align 8
  call void @llvm.lifetime.start.p0(i64 8, ptr %5) #3
  %7 = load ptr, ptr %4, align 8, !tbaa !120
  call void @_ZN6symbolC1EPKc(ptr noundef nonnull align 8 dereferenceable(8) %5, ptr noundef %7)
  %8 = call noundef i32 @_ZN11ast_manager12mk_family_idERK6symbol(ptr noundef nonnull align 8 dereferenceable(976) %6, ptr noundef nonnull align 8 dereferenceable(8) %5)
  call void @llvm.lifetime.end.p0(i64 8, ptr %5) #3
  ret i32 %8
}

; Function Attrs: mustprogress uwtable
define hidden noundef ptr @_ZNK7bv_util9mk_bv2intEP4expr(ptr noundef nonnull align 8 dereferenceable(24) %0, ptr noundef %1) #4 align 2 personality ptr @__gxx_personality_v0 {
  %3 = alloca ptr, align 8
  %4 = alloca ptr, align 8
  %5 = alloca ptr, align 8
  %6 = alloca %class.parameter, align 8
  %7 = alloca ptr, align 8
  %8 = alloca i32, align 4
  store ptr %0, ptr %3, align 8, !tbaa !207
  store ptr %1, ptr %4, align 8, !tbaa !162
  %9 = load ptr, ptr %3, align 8
  call void @llvm.lifetime.start.p0(i64 8, ptr %5) #3
  %10 = getelementptr inbounds nuw %class.bv_util, ptr %9, i32 0, i32 1
  %11 = load ptr, ptr %10, align 8, !tbaa !211
  %12 = getelementptr inbounds nuw %class.bv_util, ptr %9, i32 0, i32 1
  %13 = load ptr, ptr %12, align 8, !tbaa !211
  %14 = call noundef i32 @_ZN11ast_manager12mk_family_idEPKc(ptr noundef nonnull align 8 dereferenceable(976) %13, ptr noundef @.str.14)
  %15 = call noundef ptr @_ZN11ast_manager7mk_sortEiijPK9parameter(ptr noundef nonnull align 8 dereferenceable(976) %11, i32 noundef %14, i32 noundef 1, i32 noundef 0, ptr noundef null)
  store ptr %15, ptr %5, align 8, !tbaa !46
  call void @llvm.lifetime.start.p0(i64 16, ptr %6) #3
  %16 = load ptr, ptr %5, align 8, !tbaa !46
  call void @_ZN9parameterC2EP3ast(ptr noundef nonnull align 8 dereferenceable(16) %6, ptr noundef %16)
  %17 = getelementptr inbounds nuw %class.bv_util, ptr %9, i32 0, i32 1
  %18 = load ptr, ptr %17, align 8, !tbaa !211
  %19 = invoke noundef i32 @_ZNK14bv_recognizers7get_fidEv(ptr noundef nonnull align 4 dereferenceable(4) %9)
          to label %20 unwind label %23

20:                                               ; preds = %2
  %21 = invoke noundef ptr @_ZN11ast_manager6mk_appEiijPK9parameterjPKP4exprP4sort(ptr noundef nonnull align 8 dereferenceable(976) %18, i32 noundef %19, i32 noundef 66, i32 noundef 1, ptr noundef %6, i32 noundef 1, ptr noundef %4, ptr noundef null)
          to label %22 unwind label %23

22:                                               ; preds = %20
  call void @_ZN9parameterD1Ev(ptr noundef nonnull align 8 dereferenceable(16) %6) #3
  call void @llvm.lifetime.end.p0(i64 16, ptr %6) #3
  call void @llvm.lifetime.end.p0(i64 8, ptr %5) #3
  ret ptr %21

23:                                               ; preds = %20, %2
  %24 = landingpad { ptr, i32 }
          cleanup
  %25 = extractvalue { ptr, i32 } %24, 0
  store ptr %25, ptr %7, align 8
  %26 = extractvalue { ptr, i32 } %24, 1
  store i32 %26, ptr %8, align 4
  call void @_ZN9parameterD1Ev(ptr noundef nonnull align 8 dereferenceable(16) %6) #3
  call void @llvm.lifetime.end.p0(i64 16, ptr %6) #3
  call void @llvm.lifetime.end.p0(i64 8, ptr %5) #3
  br label %27

27:                                               ; preds = %23
  %28 = load ptr, ptr %7, align 8
  %29 = load i32, ptr %8, align 4
  %30 = insertvalue { ptr, i32 } poison, ptr %28, 0
  %31 = insertvalue { ptr, i32 } %30, i32 %29, 1
  resume { ptr, i32 } %31
}