; Function Attrs: mustprogress uwtable
define hidden noundef ptr @_ZNK7bv_util9mk_bv2intEP4expr(ptr noundef nonnull readonly align 8 captures(none) dereferenceable(24) %0, ptr noundef %1) local_unnamed_addr #3 align 2 personality ptr @__gxx_personality_v0 {
  %3 = alloca %class.symbol, align 8
  %4 = alloca ptr, align 8
  %5 = alloca %class.parameter, align 8
  store ptr %1, ptr %4, align 8, !tbaa !159
  %6 = getelementptr inbounds nuw i8, ptr %0, i64 8
  %7 = load ptr, ptr %6, align 8, !tbaa !185
  call void @llvm.lifetime.start.p0(i64 8, ptr nonnull %3) #24
  call void @_ZN6symbolC1EPKc(ptr noundef nonnull align 8 dereferenceable(8) %3, ptr noundef nonnull @.str.14)
  %8 = getelementptr inbounds nuw i8, ptr %7, i64 560
  %9 = call noundef i32 @_ZN14family_manager12mk_family_idERK6symbol(ptr noundef nonnull align 8 dereferenceable(56) %8, ptr noundef nonnull align 8 dereferenceable(8) %3)
  call void @llvm.lifetime.end.p0(i64 8, ptr nonnull %3) #24
  %10 = call noundef ptr @_ZN11ast_manager7mk_sortEiijPK9parameter(ptr noundef nonnull align 8 dereferenceable(976) %7, i32 noundef %9, i32 noundef 1, i32 noundef 0, ptr noundef null)
  call void @llvm.lifetime.start.p0(i64 16, ptr nonnull %5) #24
  store ptr %10, ptr %5, align 8, !tbaa !187
  %11 = getelementptr inbounds nuw i8, ptr %5, i64 8
  store i8 1, ptr %11, align 8, !tbaa !117
  %12 = load ptr, ptr %6, align 8, !tbaa !185
  %13 = load i32, ptr %0, align 8, !tbaa !179
  %14 = invoke noundef ptr @_ZN11ast_manager6mk_appEiijPK9parameterjPKP4exprP4sort(ptr noundef nonnull align 8 dereferenceable(976) %12, i32 noundef %13, i32 noundef 66, i32 noundef 1, ptr noundef nonnull %5, i32 noundef 1, ptr noundef nonnull %4, ptr noundef null)
          to label %15 unwind label %16

15:                                               ; preds = %2
  call void @_ZN9parameterD1Ev(ptr noundef nonnull align 8 dereferenceable(16) %5) #24
  call void @llvm.lifetime.end.p0(i64 16, ptr nonnull %5) #24
  ret ptr %14

16:                                               ; preds = %2
  %17 = landingpad { ptr, i32 }
          cleanup
  call void @_ZN9parameterD1Ev(ptr noundef nonnull align 8 dereferenceable(16) %5) #24
  call void @llvm.lifetime.end.p0(i64 16, ptr nonnull %5) #24
  resume { ptr, i32 } %17
}